(lp0
S'poi'
p1
aS'deferral_payments'
p2
aS'total_stock_value'
p3
aS'exercised_stock_options'
p4
aS'long_term_incentive'
p5
aS'shared_receipt_with_poi'
p6
aS'ratio_to_messages'
p7
aS'ratio_from_messages'
p8
a.